; Function Attrs: nounwind uwtable
define dso_local noundef zeroext i1 @errsave_start(ptr noundef captures(address_is_null) %0, ptr noundef %1) local_unnamed_addr #3 {
  %3 = icmp eq ptr %0, null
  br i1 %3, label %7, label %4

4:                                                ; preds = %2
  %5 = load i32, ptr %0, align 4
  %6 = icmp eq i32 %5, 446
  br i1 %6, label %9, label %7

7:                                                ; preds = %4, %2
  %8 = tail call zeroext i1 @errstart(i32 noundef 21, ptr noundef %1)
  br label %34

9:                                                ; preds = %4
  %10 = getelementptr inbounds nuw i8, ptr %0, i64 4
  store i8 1, ptr %10, align 4
  %11 = getelementptr inbounds nuw i8, ptr %0, i64 5
  %12 = load i8, ptr %11, align 1, !range !4, !noundef !5
  %13 = trunc nuw i8 %12 to i1
  br i1 %13, label %14, label %34

14:                                               ; preds = %9
  %15 = load i32, ptr @recursion_depth, align 4
  %16 = add i32 %15, 1
  store i32 %16, ptr @recursion_depth, align 4
  %17 = load i32, ptr @errordata_stack_depth, align 4
  %18 = add i32 %17, 1
  store i32 %18, ptr @errordata_stack_depth, align 4
  %19 = icmp sgt i32 %18, 4
  br i1 %19, label %20, label %get_error_stack_entry.exit, !prof !8

20:                                               ; preds = %14
  store i32 -1, ptr @errordata_stack_depth, align 4
  %21 = tail call zeroext i1 @errstart_cold(i32 noundef 23, ptr noundef null) #33
  tail call void @llvm.assume(i1 %21)
  %22 = tail call i32 (ptr, ...) @errmsg_internal(ptr noundef nonnull @.str.46)
  tail call void @errfinish(ptr noundef nonnull @.str.2, i32 noundef 761, ptr noundef nonnull @__func__.get_error_stack_entry)
  unreachable

get_error_stack_entry.exit:                       ; preds = %14
  %23 = sext i32 %18 to i64
  %24 = getelementptr inbounds [5 x %struct.ErrorData], ptr @errordata, i64 0, i64 %23
  tail call void @llvm.memset.p0.i64(ptr noundef nonnull align 8 dereferenceable(184) %24, i8 0, i64 184, i1 false)
  %25 = tail call ptr @__errno_location() #34
  %26 = load i32, ptr %25, align 4
  %27 = getelementptr inbounds nuw i8, ptr %24, i64 168
  store i32 %26, ptr %27, align 8
  store i32 15, ptr %24, align 8
  %.not.i = icmp eq ptr %1, null
  %28 = select i1 %.not.i, ptr @.str.3, ptr %1
  %29 = getelementptr inbounds nuw i8, ptr %24, i64 32
  store ptr %28, ptr %29, align 8
  %30 = getelementptr inbounds nuw i8, ptr %24, i64 40
  store ptr %28, ptr %30, align 8
  %31 = getelementptr inbounds nuw i8, ptr %24, i64 48
  store i32 2600, ptr %31, align 8
  %32 = load ptr, ptr @CurrentMemoryContext, align 8
  %33 = getelementptr inbounds nuw i8, ptr %24, i64 176
  store ptr %32, ptr %33, align 8
  store i32 %15, ptr @recursion_depth, align 4
  br label %34

34:                                               ; preds = %9, %get_error_stack_entry.exit, %7
  %.0 = phi i1 [ %8, %7 ], [ true, %get_error_stack_entry.exit ], [ false, %9 ]
  ret i1 %.0
}